; Function Attrs: mustprogress uwtable
define internal noundef i64 @_ZL13custom_cflushP11processor_t6insn_tm(ptr noundef readonly captures(none) %0, i64 %1, i64 noundef %2) #4 personality ptr @__gxx_personality_v0 {
  %4 = getelementptr inbounds nuw i8, ptr %0, i64 1080
  %5 = load i64, ptr %4, align 8, !tbaa !37
  %6 = icmp ult i64 %5, 3
  br i1 %6, label %7, label %12, !prof !10

7:                                                ; preds = %3
  %8 = tail call ptr @__cxa_allocate_exception(i64 32) #21
  %9 = getelementptr inbounds nuw i8, ptr %8, i64 8
  store i64 2, ptr %9, align 8, !tbaa !113
  %10 = getelementptr inbounds nuw i8, ptr %8, i64 16
  store i8 0, ptr %10, align 8, !tbaa !115
  %11 = getelementptr inbounds nuw i8, ptr %8, i64 24
  store i64 %1, ptr %11, align 8, !tbaa !117
  store ptr getelementptr inbounds nuw inrange(-16, 80) (i8, ptr @_ZTV24trap_illegal_instruction, i64 16), ptr %8, align 8, !tbaa !16
  tail call void @__cxa_throw(ptr nonnull %8, ptr nonnull @_ZTI24trap_illegal_instruction, ptr nonnull @_ZN6trap_tD2Ev) #20
  unreachable

12:                                               ; preds = %3
  %13 = add i64 %2, 4
  ret i64 %13
}